; Function Attrs: mustprogress uwtable
define range(i32 0, 2) i32 @cvCheckArr(ptr noundef %0, i32 noundef %1, double noundef %2, double noundef %3) local_unnamed_addr #3 personality ptr @__gxx_personality_v0 {
  %5 = alloca %"class.cv::_InputArray", align 8
  %6 = alloca %"class.cv::Mat", align 8
  %7 = and i32 %1, 1
  %8 = icmp eq i32 %7, 0
  %.08 = select i1 %8, double 0xFFEFFFFFFFFFFFFF, double %2
  %.07 = select i1 %8, double 0x7FEFFFFFFFFFFFFF, double %3
  call void @llvm.lifetime.start.p0(i64 24, ptr nonnull %5) #27
  call void @llvm.lifetime.start.p0(i64 96, ptr nonnull %6) #27
  call void @_ZN2cv10cvarrToMatEPKvbbiPNS_10AutoBufferIdLm136EEE(ptr dead_on_unwind nonnull writable sret(%"class.cv::Mat") align 8 %6, ptr noundef %0, i1 noundef zeroext false, i1 noundef zeroext true, i32 noundef 0, ptr noundef null)
  %9 = getelementptr inbounds nuw i8, ptr %5, i64 16
  store i32 0, ptr %9, align 8, !tbaa !164
  %10 = getelementptr inbounds nuw i8, ptr %5, i64 20
  store i32 0, ptr %10, align 4, !tbaa !165
  store i32 16842752, ptr %5, align 8, !tbaa !119
  %11 = getelementptr inbounds nuw i8, ptr %5, i64 8
  store ptr %6, ptr %11, align 8, !tbaa !16
  %12 = and i32 %1, 2
  %13 = icmp ne i32 %12, 0
  %14 = invoke noundef zeroext i1 @_ZN2cv10checkRangeERKNS_11_InputArrayEbPNS_6Point_IiEEdd(ptr noundef nonnull align 8 dereferenceable(24) %5, i1 noundef zeroext %13, ptr noundef null, double noundef %.08, double noundef %.07)
          to label %15 unwind label %17

15:                                               ; preds = %4
  %16 = zext i1 %14 to i32
  call void @_ZN2cv3MatD1Ev(ptr noundef nonnull align 8 dereferenceable(96) %6) #27
  call void @llvm.lifetime.end.p0(i64 96, ptr nonnull %6) #27
  call void @llvm.lifetime.end.p0(i64 24, ptr nonnull %5) #27
  ret i32 %16

17:                                               ; preds = %4
  %18 = landingpad { ptr, i32 }
          cleanup
  call void @_ZN2cv3MatD1Ev(ptr noundef nonnull align 8 dereferenceable(96) %6) #27
  call void @llvm.lifetime.end.p0(i64 96, ptr nonnull %6) #27
  call void @llvm.lifetime.end.p0(i64 24, ptr nonnull %5) #27
  resume { ptr, i32 } %18
}